; Function Attrs: mustprogress nounwind uwtable
define dso_local void @_ZN4llvm14SpillPlacement13releaseMemoryEv(ptr noundef nonnull align 8 dereferenceable(344) %0) unnamed_addr #0 align 2 {
  %2 = getelementptr inbounds nuw i8, ptr %0, i64 80
  %3 = load ptr, ptr %2, align 8
  %4 = icmp eq ptr %3, null
  br i1 %4, label %21, label %5

5:                                                ; preds = %1
  %6 = getelementptr inbounds i8, ptr %3, i64 -8
  %7 = load i64, ptr %6, align 8
  %8 = icmp eq i64 %7, 0
  br i1 %8, label %.loopexit, label %.preheader.preheader

.preheader.preheader:                             ; preds = %5
  %9 = getelementptr inbounds %"struct.llvm::SpillPlacement::Node", ptr %3, i64 %7
  br label %.preheader

.preheader:                                       ; preds = %.preheader.preheader, %_ZN4llvm14SpillPlacement4NodeD2Ev.exit
  %10 = phi ptr [ %11, %_ZN4llvm14SpillPlacement4NodeD2Ev.exit ], [ %9, %.preheader.preheader ]
  %11 = getelementptr inbounds i8, ptr %10, i64 -112
  %12 = getelementptr inbounds i8, ptr %10, i64 -88
  %13 = tail call noundef i64 @_ZNK4llvm15SmallVectorBaseIjE4sizeEv(ptr noundef nonnull align 8 dereferenceable(16) %12) #17
  %14 = load ptr, ptr %12, align 8
  %15 = getelementptr inbounds i8, ptr %10, i64 -72
  %16 = icmp eq ptr %14, %15
  br i1 %16, label %_ZN4llvm14SpillPlacement4NodeD2Ev.exit, label %17

17:                                               ; preds = %.preheader
  tail call void @free(ptr noundef %14) #17
  br label %_ZN4llvm14SpillPlacement4NodeD2Ev.exit

_ZN4llvm14SpillPlacement4NodeD2Ev.exit:           ; preds = %.preheader, %17
  %18 = icmp eq ptr %11, %3
  br i1 %18, label %.loopexit, label %.preheader

.loopexit:                                        ; preds = %_ZN4llvm14SpillPlacement4NodeD2Ev.exit, %5
  %19 = mul i64 %7, 112
  %20 = or disjoint i64 %19, 8
  tail call void @_ZdaPvm(ptr noundef nonnull %6, i64 noundef %20) #22
  br label %21

21:                                               ; preds = %.loopexit, %1
  store ptr null, ptr %2, align 8
  %22 = getelementptr inbounds nuw i8, ptr %0, i64 280
  %23 = tail call noundef i64 @_ZNK4llvm15SmallVectorBaseIjE4sizeEv(ptr noundef nonnull align 8 dereferenceable(16) %22) #17
  %24 = getelementptr inbounds i8, ptr %0, i64 288
  store i32 0, ptr %24, align 8
  ret void
}